Certificate:
    Data:
        Version: 3 (0x2)
        Serial Number: 3 (0x3)
        Signature Algorithm: sha1WithRSAEncryption
        Issuer: C=BA, ST=RS, L=Banja Luka, O=Elektrotehnicki fakultet, OU=CA_Dobrovoljski, CN=Tanja
        Validity
            Not Before: May 19 20:02:31 2020 GMT
            Not After : May 20 20:02:31 2020 GMT
        Subject: C=BA, ST=RS, O=Elektrotehnicki fakultet, OU=CA_Dobrovoljski, CN=korisnik3/emailAddress=korisnik3@hotmail.com
        Subject Public Key Info:
            Public Key Algorithm: rsaEncryption
                RSA Public-Key: (2048 bit)
                Modulus:
                    00:c1:81:b8:e5:2e:72:3c:ba:c2:fa:f5:33:4f:48:
                    23:c8:39:e9:81:da:92:96:35:0d:c8:a2:ce:12:ff:
                    82:0f:fc:ed:27:52:22:aa:68:e4:d8:06:92:6c:7f:
                    51:75:fc:bd:5a:92:d8:fd:e3:ee:47:2f:9c:e7:6c:
                    91:04:e7:5d:0f:d4:ba:3c:5f:14:87:9b:9f:fd:9b:
                    15:a5:14:17:6d:a8:45:59:1d:8c:60:2f:e2:e8:5b:
                    78:03:2c:29:59:27:12:af:48:12:37:65:ef:f2:32:
                    2a:48:a6:0b:4c:93:37:14:5a:c8:76:d0:27:60:92:
                    6b:cc:8b:08:be:fb:40:32:e2:75:65:f0:4a:8c:da:
                    2e:a5:9b:03:c2:47:1d:80:7a:ed:13:55:3c:8e:a4:
                    6b:d0:40:49:38:c0:b5:51:60:cb:68:f8:b2:c8:45:
                    29:bf:e9:48:0d:8b:e4:2e:9f:9f:6a:a0:02:e2:c5:
                    82:f1:05:96:6a:17:e3:a5:8d:8b:74:c6:4a:51:ef:
                    6e:4e:c5:74:50:65:1b:0e:ce:a4:7b:3d:1a:fc:b9:
                    aa:d0:68:4b:0e:41:39:37:19:ff:cd:23:fc:5e:ef:
                    30:39:6b:ba:f3:58:6f:b8:da:8f:63:cc:bd:0e:ab:
                    d2:33:94:27:d7:cb:1a:bf:8c:75:03:3b:87:d3:fb:
                    5a:b7
                Exponent: 65537 (0x10001)
        X509v3 extensions:
            X509v3 Basic Constraints: 
                CA:FALSE
            X509v3 Extended Key Usage: 
                TLS Web Client Authentication
            Netscape Comment: 
                OpenSSL Generated Certificate
            X509v3 Subject Key Identifier: 
                33:97:1E:81:C8:E6:4B:AE:6D:4B:37:E6:D1:10:AE:C8:3D:61:D1:84
            X509v3 Authority Key Identifier: 
                keyid:A6:16:52:D5:FA:4F:0C:B6:05:42:0A:94:CF:18:D9:6E:89:59:54:38

            X509v3 CRL Distribution Points: 

                Full Name:
                  URI:http://192.168.21.89/rootcrl.pem

    Signature Algorithm: sha1WithRSAEncryption
         b8:64:9d:d5:7a:0c:fd:68:21:bd:70:cb:c1:0d:03:d9:e0:ce:
         16:a1:22:a4:37:75:a7:33:37:ae:da:c2:61:39:0e:31:c9:6e:
         2b:18:bd:28:86:34:4c:9d:96:57:fd:65:92:30:a7:7b:cf:04:
         2f:cc:21:a1:ea:96:cb:54:aa:cb:f7:63:7f:30:55:01:33:0c:
         c7:43:64:fc:84:67:0d:d8:99:2a:21:61:fd:9e:0d:e0:d8:74:
         ba:bf:df:62:9e:21:b7:d5:af:db:28:c7:eb:d7:7a:d9:f6:38:
         a0:1f:bf:e7:e1:28:b2:0f:93:7a:02:bd:55:70:3e:c1:77:d0:
         89:3f:22:45:76:f7:a0:56:8f:9a:99:51:38:91:17:1a:2f:18:
         83:5f:a1:69:dc:5c:b2:e8:4c:65:b0:9f:90:42:9b:e9:96:44:
         e2:c2:be:c9:e7:78:ac:ae:f3:af:55:45:e6:9c:ad:1c:1e:dd:
         d5:9d:05:81:b7:0c:e4:f4:56:76:83:61:d7:a8:ec:65:e7:40:
         a5:26:ed:7d:e1:b9:65:15:0a:af:b4:a1:58:60:22:bc:87:1c:
         9d:8b:b6:46:3c:09:6b:c2:2c:d2:a1:88:c2:72:9f:c5:7e:e7:
         3c:b1:7f:a1:9c:70:80:7e:5d:62:a7:42:fe:8e:81:d1:0d:12:
         74:ff:8b:24:66:a5:52:fe:14:20:72:13:58:87:69:9d:cc:82:
         ff:fe:d3:e5:39:15:a5:61:06:ab:54:25:c9:9b:a5:02:98:a0:
         c6:c1:b2:ff:08:87:37:f9:b2:3b:f4:bd:8d:6f:83:cf:65:7b:
         1e:00:3a:d5:55:8b:ac:4d:51:05:ed:d6:ff:14:7c:e0:7f:f1:
         88:fe:25:92:9f:25:91:91:e9:86:6c:e3:ec:82:ca:b5:56:c4:
         d2:c4:0d:35:43:ac:60:29:3c:ff:ec:61:f4:5c:fb:a2:79:0f:
         e1:91:e0:33:00:2a:9b:2e:07:28:95:d8:64:39:58:b6:a4:7f:
         13:2d:73:a7:61:b1:20:71:ad:5c:e6:f7:ce:57:4f:05:37:d6:
         f1:9a:98:6b:f5:ed:92:50:84:eb:37:cf:e9:47:db:ee:8a:45:
         8e:1d:b0:c6:12:a6:ad:f0:68:a4:bf:3c:43:27:fb:d5:1d:62:
         6c:a8:af:bb:de:01:d3:67:e2:dc:a2:4a:a0:01:3b:07:28:46:
         09:dc:ae:0f:f4:b1:07:5b:0a:1d:5b:90:93:8d:6a:e1:c8:70:
         53:12:2a:16:a0:d7:0f:b6:ab:06:6f:08:70:c4:65:2d:20:ae:
         18:57:97:8e:be:5c:c4:72:a2:cd:6f:89:39:4a:5a:6b:07:0a:
         8b:d2:6c:92:cf:2b:5a:1a
-----BEGIN CERTIFICATE-----
MIIFTjCCAzagAwIBAgIBAzANBgkqhkiG9w0BAQUFADB8MQswCQYDVQQGEwJCQTEL
MAkGA1UECBMCUlMxEzARBgNVBAcTCkJhbmphIEx1a2ExITAfBgNVBAoTGEVsZWt0
cm90ZWhuaWNraSBmYWt1bHRldDEYMBYGA1UECxQPQ0FfRG9icm92b2xqc2tpMQ4w
DAYDVQQDEwVUYW5qYTAeFw0yMDA1MTkyMDAyMzFaFw0yMDA1MjAyMDAyMzFaMIGR
MQswCQYDVQQGEwJCQTELMAkGA1UECBMCUlMxITAfBgNVBAoTGEVsZWt0cm90ZWhu
aWNraSBmYWt1bHRldDEYMBYGA1UECxQPQ0FfRG9icm92b2xqc2tpMRIwEAYDVQQD
Ewlrb3Jpc25pazMxJDAiBgkqhkiG9w0BCQEWFWtvcmlzbmlrM0Bob3RtYWlsLmNv
bTCCASIwDQYJKoZIhvcNAQEBBQADggEPADCCAQoCggEBAMGBuOUucjy6wvr1M09I
I8g56YHakpY1DciizhL/gg/87SdSIqpo5NgGkmx/UXX8vVqS2P3j7kcvnOdskQTn
XQ/UujxfFIebn/2bFaUUF22oRVkdjGAv4uhbeAMsKVknEq9IEjdl7/IyKkimC0yT
NxRayHbQJ2CSa8yLCL77QDLidWXwSozaLqWbA8JHHYB67RNVPI6ka9BASTjAtVFg
y2j4sshFKb/pSA2L5C6fn2qgAuLFgvEFlmoX46WNi3TGSlHvbk7FdFBlGw7OpHs9
Gvy5qtBoSw5BOTcZ/80j/F7vMDlruvNYb7jaj2PMvQ6r0jOUJ9fLGr+MdQM7h9P7
WrcCAwEAAaOBxDCBwTAJBgNVHRMEAjAAMBMGA1UdJQQMMAoGCCsGAQUFBwMCMCwG
CWCGSAGG+EIBDQQfFh1PcGVuU1NMIEdlbmVyYXRlZCBDZXJ0aWZpY2F0ZTAdBgNV
HQ4EFgQUM5cegcjmS65tSzfm0RCuyD1h0YQwHwYDVR0jBBgwFoAUphZS1fpPDLYF
QgqUzxjZbolZVDgwMQYDVR0fBCowKDAmoCSgIoYgaHR0cDovLzE5Mi4xNjguMjEu
ODkvcm9vdGNybC5wZW0wDQYJKoZIhvcNAQEFBQADggIBALhkndV6DP1oIb1wy8EN
A9ngzhahIqQ3daczN67awmE5DjHJbisYvSiGNEydllf9ZZIwp3vPBC/MIaHqlstU
qsv3Y38wVQEzDMdDZPyEZw3YmSohYf2eDeDYdLq/32KeIbfVr9sox+vXetn2OKAf
v+fhKLIPk3oCvVVwPsF30Ik/IkV296BWj5qZUTiRFxovGINfoWncXLLoTGWwn5BC
m+mWROLCvsnneKyu869VReacrRwe3dWdBYG3DOT0VnaDYdeo7GXnQKUm7X3huWUV
Cq+0oVhgIryHHJ2LtkY8CWvCLNKhiMJyn8V+5zyxf6GccIB+XWKnQv6OgdENEnT/
iyRmpVL+FCByE1iHaZ3Mgv/+0+U5FaVhBqtUJcmbpQKYoMbBsv8Ihzf5sjv0vY1v
g89lex4AOtVVi6xNUQXt1v8UfOB/8Yj+JZKfJZGR6YZs4+yCyrVWxNLEDTVDrGAp
PP/sYfRc+6J5D+GR4DMAKpsuByiV2GQ5WLakfxMtc6dhsSBxrVzm985XTwU31vGa
mGv17ZJQhOs3z+lH2+6KRY4dsMYSpq3waKS/PEMn+9UdYmyor7veAdNn4tyiSqAB
OwcoRgncrg/0sQdbCh1bkJONauHIcFMSKhag1w+2qwZvCHDEZS0grhhXl46+XMRy
os1viTlKWmsHCovSbJLPK1oa
-----END CERTIFICATE-----
