Certificate:
    Data:
        Version: 3 (0x2)
        Serial Number: 4 (0x4)
        Signature Algorithm: sha1WithRSAEncryption
        Issuer: C=BA, ST=RS, L=Banja Luka, O=Elektrotehnicki fakultet, OU=CA_Dobrovoljski, CN=Tanja
        Validity
            Not Before: May 19 20:04:32 2020 GMT
            Not After : Oct  1 20:04:32 2021 GMT
        Subject: C=BA, ST=RS, O=Elektrotehnicki fakultet, OU=CA_Dobrovoljski, CN=korisnik4
        Subject Public Key Info:
            Public Key Algorithm: rsaEncryption
                RSA Public-Key: (2048 bit)
                Modulus:
                    00:bd:69:60:88:35:c9:aa:5c:1c:0e:54:01:15:f1:
                    49:f9:02:22:d3:d4:61:97:d2:c9:53:2b:f7:09:ab:
                    f2:83:da:56:13:c2:f3:44:5d:c4:df:b0:cd:6a:03:
                    c8:c8:72:08:33:f1:af:e7:50:49:cd:9f:c4:65:fb:
                    50:e3:f5:9f:f6:64:fb:d6:0d:2f:31:70:3d:74:41:
                    1c:19:45:c5:6a:a8:90:20:62:f1:2f:97:1e:ed:9e:
                    0a:2d:4a:37:4f:36:b8:4e:2f:3e:62:de:b6:38:9f:
                    9d:30:36:dc:21:3b:e6:f5:85:a4:8c:45:a0:5d:81:
                    77:12:b4:d0:90:19:30:36:5e:57:f6:05:c9:c0:fc:
                    6d:a9:89:f5:6f:c1:ea:d1:a3:5c:b5:64:08:50:1a:
                    17:b4:3a:94:9b:01:8b:16:66:d8:8a:d6:3e:0a:c0:
                    70:d5:11:48:4f:60:0b:0b:fe:88:ae:db:fc:dd:de:
                    3c:91:3d:5a:66:b8:ef:d9:a8:2c:30:bb:ff:87:49:
                    13:31:75:85:f9:08:6f:4c:cc:80:f6:80:41:89:79:
                    6e:f6:52:31:de:3d:28:64:af:f9:43:9a:26:10:d8:
                    7a:2a:70:f9:f0:a6:38:11:ad:25:d9:af:74:24:a7:
                    4d:8e:9e:1d:a1:e1:29:2b:3d:21:af:eb:17:00:de:
                    8a:41
                Exponent: 65537 (0x10001)
        X509v3 extensions:
            X509v3 Basic Constraints: 
                CA:FALSE
            X509v3 Extended Key Usage: 
                TLS Web Client Authentication
            Netscape Comment: 
                OpenSSL Generated Certificate
            X509v3 Subject Key Identifier: 
                0F:F7:5B:8D:71:6C:56:B5:9F:18:7E:85:C3:12:9A:F7:1D:4B:1D:5F
            X509v3 Authority Key Identifier: 
                keyid:A6:16:52:D5:FA:4F:0C:B6:05:42:0A:94:CF:18:D9:6E:89:59:54:38

            X509v3 CRL Distribution Points: 

                Full Name:
                  URI:http://192.168.21.89/rootcrl.pem

    Signature Algorithm: sha1WithRSAEncryption
         85:f8:8a:05:42:11:fd:34:05:4d:38:f9:ee:e1:c2:e6:7a:b0:
         cb:d3:fb:f8:ce:f3:60:b1:93:38:72:ef:e8:3a:9b:35:e8:5f:
         d2:b6:2b:3a:8a:d9:3f:f1:5a:6b:93:e7:80:4b:2c:73:61:89:
         4c:09:22:74:34:c0:fd:13:c4:48:15:5d:a7:96:2e:46:6d:c2:
         e2:d1:07:2a:cb:fc:f9:76:03:d2:ed:79:fe:79:77:da:eb:32:
         41:0f:d0:d0:d0:66:cf:eb:b3:bd:47:b8:d3:0a:a1:95:07:e8:
         09:1b:40:9a:68:20:82:d6:f1:65:1f:c0:ed:ad:33:c0:bc:ca:
         70:08:47:d3:5a:6f:f2:18:c5:28:c9:52:e5:6e:ae:4e:d1:3d:
         02:71:95:d4:8a:dc:d4:6d:e2:fd:ae:f8:c7:0d:2c:1b:6a:ec:
         5c:92:b3:6c:0a:7b:f7:16:66:55:21:03:cc:86:d2:b8:a4:56:
         75:b6:7d:51:b9:bc:0c:7c:74:2f:2a:92:b7:32:d3:48:25:87:
         74:97:12:af:c4:79:17:1b:bd:f7:b1:e3:0f:42:0d:e9:8e:6f:
         31:e1:ea:bc:e0:aa:2b:99:7b:5b:0f:52:1b:ab:35:0a:8a:4b:
         1f:86:3e:28:e5:db:03:52:ba:03:d8:58:92:7c:c8:60:06:1c:
         5e:12:f9:56:36:95:b3:61:50:30:ba:94:35:5f:14:57:ec:cc:
         d3:81:f6:34:bc:0e:7d:60:6d:f6:08:7f:ac:46:c6:c3:75:13:
         9e:e0:f4:b4:47:87:55:33:3e:18:6d:57:e0:98:2f:b0:52:fc:
         e8:06:98:af:82:dc:4f:72:e9:f6:66:44:0c:da:14:e7:e3:85:
         9f:b6:f8:a0:28:c1:d8:83:89:29:de:0d:08:e3:ee:80:6b:1a:
         85:97:71:e7:49:be:02:5c:48:99:cf:87:1c:72:55:14:05:c4:
         33:53:2c:24:8c:fd:77:16:1f:bf:50:b8:21:1c:df:84:d9:af:
         73:7b:fc:f8:e3:cf:8e:f9:ca:8d:c1:f5:2c:7d:09:86:6f:5a:
         9e:8e:5a:9d:f1:9b:14:5c:a8:07:21:ba:97:ab:a0:a9:db:65:
         1c:18:3f:f9:76:7f:b9:f5:20:a4:de:e1:ac:79:24:22:96:27:
         98:d5:12:57:85:6f:81:fa:dd:94:80:01:49:b3:c0:6c:1e:49:
         af:08:9d:a8:eb:fd:57:58:7d:c6:95:f9:c0:30:d8:46:2b:b8:
         a3:0e:33:f9:51:e1:ba:66:62:01:30:19:cd:c5:9b:1b:cd:a7:
         f4:79:3e:0b:c1:5a:13:cb:d0:ce:5f:1a:cc:a4:4c:b3:2a:d6:
         04:96:ba:33:8c:18:83:bb
-----BEGIN CERTIFICATE-----
MIIFJzCCAw+gAwIBAgIBBDANBgkqhkiG9w0BAQUFADB8MQswCQYDVQQGEwJCQTEL
MAkGA1UECBMCUlMxEzARBgNVBAcTCkJhbmphIEx1a2ExITAfBgNVBAoTGEVsZWt0
cm90ZWhuaWNraSBmYWt1bHRldDEYMBYGA1UECxQPQ0FfRG9icm92b2xqc2tpMQ4w
DAYDVQQDEwVUYW5qYTAeFw0yMDA1MTkyMDA0MzJaFw0yMTEwMDEyMDA0MzJaMGsx
CzAJBgNVBAYTAkJBMQswCQYDVQQIEwJSUzEhMB8GA1UEChMYRWxla3Ryb3RlaG5p
Y2tpIGZha3VsdGV0MRgwFgYDVQQLFA9DQV9Eb2Jyb3ZvbGpza2kxEjAQBgNVBAMT
CWtvcmlzbmlrNDCCASIwDQYJKoZIhvcNAQEBBQADggEPADCCAQoCggEBAL1pYIg1
yapcHA5UARXxSfkCItPUYZfSyVMr9wmr8oPaVhPC80RdxN+wzWoDyMhyCDPxr+dQ
Sc2fxGX7UOP1n/Zk+9YNLzFwPXRBHBlFxWqokCBi8S+XHu2eCi1KN082uE4vPmLe
tjifnTA23CE75vWFpIxFoF2BdxK00JAZMDZeV/YFycD8bamJ9W/B6tGjXLVkCFAa
F7Q6lJsBixZm2IrWPgrAcNURSE9gCwv+iK7b/N3ePJE9Wma479moLDC7/4dJEzF1
hfkIb0zMgPaAQYl5bvZSMd49KGSv+UOaJhDYeipw+fCmOBGtJdmvdCSnTY6eHaHh
KSs9Ia/rFwDeikECAwEAAaOBxDCBwTAJBgNVHRMEAjAAMBMGA1UdJQQMMAoGCCsG
AQUFBwMCMCwGCWCGSAGG+EIBDQQfFh1PcGVuU1NMIEdlbmVyYXRlZCBDZXJ0aWZp
Y2F0ZTAdBgNVHQ4EFgQUD/dbjXFsVrWfGH6FwxKa9x1LHV8wHwYDVR0jBBgwFoAU
phZS1fpPDLYFQgqUzxjZbolZVDgwMQYDVR0fBCowKDAmoCSgIoYgaHR0cDovLzE5
Mi4xNjguMjEuODkvcm9vdGNybC5wZW0wDQYJKoZIhvcNAQEFBQADggIBAIX4igVC
Ef00BU04+e7hwuZ6sMvT+/jO82Cxkzhy7+g6mzXoX9K2KzqK2T/xWmuT54BLLHNh
iUwJInQ0wP0TxEgVXaeWLkZtwuLRByrL/Pl2A9Ltef55d9rrMkEP0NDQZs/rs71H
uNMKoZUH6AkbQJpoIILW8WUfwO2tM8C8ynAIR9Nab/IYxSjJUuVurk7RPQJxldSK
3NRt4v2u+McNLBtq7FySs2wKe/cWZlUhA8yG0rikVnW2fVG5vAx8dC8qkrcy00gl
h3SXEq/EeRcbvfex4w9CDemObzHh6rzgqiuZe1sPUhurNQqKSx+GPijl2wNSugPY
WJJ8yGAGHF4S+VY2lbNhUDC6lDVfFFfszNOB9jS8Dn1gbfYIf6xGxsN1E57g9LRH
h1UzPhhtV+CYL7BS/OgGmK+C3E9y6fZmRAzaFOfjhZ+2+KAowdiDiSneDQjj7oBr
GoWXcedJvgJcSJnPhxxyVRQFxDNTLCSM/XcWH79QuCEc34TZr3N7/Pjjz475yo3B
9Sx9CYZvWp6OWp3xmxRcqAchuperoKnbZRwYP/l2f7n1IKTe4ax5JCKWJ5jVEleF
b4H63ZSAAUmzwGweSa8Inajr/VdYfcaV+cAw2EYruKMOM/lR4bpmYgEwGc3FmxvN
p/R5PgvBWhPL0M5fGsykTLMq1gSWujOMGIO7
-----END CERTIFICATE-----
