Certificate:
    Data:
        Version: 3 (0x2)
        Serial Number: 2 (0x2)
        Signature Algorithm: sha1WithRSAEncryption
        Issuer: C=BA, ST=RS, L=Banja Luka, O=Elektrotehnicki fakultet, OU=CA_Dobrovoljski, CN=Tanja
        Validity
            Not Before: May 19 19:58:53 2020 GMT
            Not After : Oct  1 19:58:53 2021 GMT
        Subject: C=BA, ST=RS, O=Elektrotehnicki fakultet, OU=CA_Dobrovoljski, CN=korisnik2/emailAddress=korisnik@gmail.com
        Subject Public Key Info:
            Public Key Algorithm: rsaEncryption
                RSA Public-Key: (2048 bit)
                Modulus:
                    00:f8:de:8b:ae:4b:83:c4:ba:d9:9b:38:c1:b4:af:
                    fd:1a:90:43:a5:2f:57:e9:7a:a0:65:5d:58:fe:cd:
                    e8:c2:81:de:4f:30:0a:ff:5d:e6:18:67:ca:b7:fd:
                    24:80:dc:ab:f8:c8:79:c9:9c:a5:1c:c1:9f:17:ac:
                    4a:40:39:e3:57:0c:6d:08:71:96:15:64:02:e9:54:
                    79:80:02:6f:e7:67:0e:38:11:ec:0c:7f:26:37:77:
                    fa:88:75:f9:4a:c1:49:49:c7:0a:21:8f:c6:25:97:
                    b8:2b:33:a1:b3:8a:8b:62:d0:f7:03:48:29:6b:ec:
                    84:ca:4b:9c:5e:e0:e3:da:99:0e:95:66:15:e8:1b:
                    8a:37:30:e6:d1:d8:91:3d:2f:11:a6:29:39:3b:fb:
                    a5:dc:5f:eb:d2:45:d1:49:f2:0d:23:83:2c:f9:7b:
                    5d:27:4f:37:d6:08:3f:53:8f:f9:0f:04:fc:64:dd:
                    34:0f:3f:a3:a3:2c:81:fb:ee:e2:a5:9a:c9:1e:1b:
                    39:89:3d:be:d6:b6:2a:bb:57:84:ae:4c:38:f2:5d:
                    85:2e:f3:b2:63:6a:07:83:e1:da:49:46:8e:ea:da:
                    4f:22:49:b7:05:12:be:d9:89:70:7e:75:8b:8c:56:
                    38:07:5e:32:e5:54:bd:24:7f:ed:28:e8:68:82:da:
                    66:fb
                Exponent: 65537 (0x10001)
        X509v3 extensions:
            X509v3 Basic Constraints: 
                CA:FALSE
            X509v3 Extended Key Usage: 
                TLS Web Client Authentication
            Netscape Comment: 
                OpenSSL Generated Certificate
            X509v3 Subject Key Identifier: 
                E3:D7:59:6F:7C:60:59:F3:4B:CE:E4:66:0A:91:0B:76:AF:0D:77:6F
            X509v3 Authority Key Identifier: 
                keyid:A6:16:52:D5:FA:4F:0C:B6:05:42:0A:94:CF:18:D9:6E:89:59:54:38

            X509v3 CRL Distribution Points: 

                Full Name:
                  URI:http://192.168.21.89/rootcrl.pem

    Signature Algorithm: sha1WithRSAEncryption
         9c:6f:db:20:52:d0:65:39:35:96:57:2f:19:0d:15:dd:9e:0b:
         54:40:24:ba:ef:32:42:7d:51:e6:5b:80:68:a6:3b:6e:4a:95:
         10:c5:6f:92:a1:3f:0e:25:8f:1b:5d:0a:46:86:93:8a:85:60:
         1e:2d:2d:04:3e:e8:8b:d9:78:09:c6:2d:69:00:c7:05:db:e9:
         f2:4e:46:bb:1a:21:a0:54:b2:3b:d8:4d:23:f0:17:ae:6a:4a:
         4c:af:0c:a8:88:15:1d:6a:15:09:b9:8c:44:11:51:32:be:9a:
         f3:8e:d2:14:09:9f:cb:82:b9:8d:32:a3:b5:27:38:39:f7:9e:
         9e:0f:32:1d:bd:f3:6e:bb:91:73:3a:48:bd:56:83:fe:b0:0a:
         7f:e1:8b:6f:d8:71:4d:87:11:76:06:88:ce:4c:0f:0c:f7:0f:
         47:38:48:ab:db:db:12:4b:dd:56:ae:b4:3e:91:8f:4f:75:4c:
         2a:dd:5f:ce:50:7c:3b:33:8c:89:9f:24:39:45:9a:b3:14:f4:
         b2:4a:c5:ad:c9:4c:e5:fd:6c:aa:cc:51:76:c9:75:59:4a:51:
         d9:38:64:dd:87:79:da:eb:99:29:e8:cb:4b:c3:e6:a6:c3:69:
         88:23:17:fe:54:ba:90:62:77:4c:13:e4:0a:41:50:42:10:c4:
         22:f6:9a:ec:a6:f1:ab:53:71:d2:c7:7d:29:03:21:e1:d5:bb:
         49:d9:9f:ff:38:67:b2:c2:ca:ab:fd:e5:3c:4c:bd:22:a3:ab:
         8c:2c:1f:cb:31:b6:fa:af:71:3e:18:22:6f:9e:43:17:27:61:
         0c:bc:8b:f5:68:cb:9a:ea:5e:15:9e:dc:96:a4:75:bf:d0:40:
         63:a8:59:59:3f:31:b2:1c:4c:a2:17:26:98:95:0f:e3:1b:ac:
         7a:49:73:c4:34:cb:02:ea:c1:45:dc:b6:29:12:b1:b7:5f:8a:
         14:6b:b7:aa:6a:b3:ed:b7:84:fc:f4:57:ee:ae:a5:4c:07:b1:
         68:1b:2a:7c:9c:15:13:02:51:d3:b6:0c:60:4a:41:7f:41:a9:
         05:37:09:c9:48:0d:8d:ac:4d:5d:7a:b2:d8:a2:60:85:50:97:
         28:9b:61:6c:6a:ff:a5:68:73:ce:54:5c:f8:b0:65:0a:26:74:
         da:2e:3e:56:80:02:0e:68:91:1c:3f:5b:ad:aa:f8:e3:56:35:
         72:1f:06:0e:0e:ff:df:40:94:6a:d2:50:f9:95:55:98:06:0b:
         46:61:07:b8:dd:6d:10:99:99:64:71:f1:da:c9:cb:56:17:5a:
         42:f0:52:f8:89:cb:0f:f9:97:b4:5a:50:7e:0c:b6:8e:0a:06:
         47:b4:04:b5:8a:1c:71:1a
-----BEGIN CERTIFICATE-----
MIIFSzCCAzOgAwIBAgIBAjANBgkqhkiG9w0BAQUFADB8MQswCQYDVQQGEwJCQTEL
MAkGA1UECBMCUlMxEzARBgNVBAcTCkJhbmphIEx1a2ExITAfBgNVBAoTGEVsZWt0
cm90ZWhuaWNraSBmYWt1bHRldDEYMBYGA1UECxQPQ0FfRG9icm92b2xqc2tpMQ4w
DAYDVQQDEwVUYW5qYTAeFw0yMDA1MTkxOTU4NTNaFw0yMTEwMDExOTU4NTNaMIGO
MQswCQYDVQQGEwJCQTELMAkGA1UECBMCUlMxITAfBgNVBAoTGEVsZWt0cm90ZWhu
aWNraSBmYWt1bHRldDEYMBYGA1UECxQPQ0FfRG9icm92b2xqc2tpMRIwEAYDVQQD
Ewlrb3Jpc25pazIxITAfBgkqhkiG9w0BCQEWEmtvcmlzbmlrQGdtYWlsLmNvbTCC
ASIwDQYJKoZIhvcNAQEBBQADggEPADCCAQoCggEBAPjei65Lg8S62Zs4wbSv/RqQ
Q6UvV+l6oGVdWP7N6MKB3k8wCv9d5hhnyrf9JIDcq/jIecmcpRzBnxesSkA541cM
bQhxlhVkAulUeYACb+dnDjgR7Ax/Jjd3+oh1+UrBSUnHCiGPxiWXuCszobOKi2LQ
9wNIKWvshMpLnF7g49qZDpVmFegbijcw5tHYkT0vEaYpOTv7pdxf69JF0UnyDSOD
LPl7XSdPN9YIP1OP+Q8E/GTdNA8/o6Msgfvu4qWayR4bOYk9vta2KrtXhK5MOPJd
hS7zsmNqB4Ph2klGjuraTyJJtwUSvtmJcH51i4xWOAdeMuVUvSR/7SjoaILaZvsC
AwEAAaOBxDCBwTAJBgNVHRMEAjAAMBMGA1UdJQQMMAoGCCsGAQUFBwMCMCwGCWCG
SAGG+EIBDQQfFh1PcGVuU1NMIEdlbmVyYXRlZCBDZXJ0aWZpY2F0ZTAdBgNVHQ4E
FgQU49dZb3xgWfNLzuRmCpELdq8Nd28wHwYDVR0jBBgwFoAUphZS1fpPDLYFQgqU
zxjZbolZVDgwMQYDVR0fBCowKDAmoCSgIoYgaHR0cDovLzE5Mi4xNjguMjEuODkv
cm9vdGNybC5wZW0wDQYJKoZIhvcNAQEFBQADggIBAJxv2yBS0GU5NZZXLxkNFd2e
C1RAJLrvMkJ9UeZbgGimO25KlRDFb5KhPw4ljxtdCkaGk4qFYB4tLQQ+6IvZeAnG
LWkAxwXb6fJORrsaIaBUsjvYTSPwF65qSkyvDKiIFR1qFQm5jEQRUTK+mvOO0hQJ
n8uCuY0yo7UnODn3np4PMh298267kXM6SL1Wg/6wCn/hi2/YcU2HEXYGiM5MDwz3
D0c4SKvb2xJL3VautD6Rj091TCrdX85QfDszjImfJDlFmrMU9LJKxa3JTOX9bKrM
UXbJdVlKUdk4ZN2HedrrmSnoy0vD5qbDaYgjF/5UupBid0wT5ApBUEIQxCL2muym
8atTcdLHfSkDIeHVu0nZn/84Z7LCyqv95TxMvSKjq4wsH8sxtvqvcT4YIm+eQxcn
YQy8i/Voy5rqXhWe3Jakdb/QQGOoWVk/MbIcTKIXJpiVD+MbrHpJc8Q0ywLqwUXc
tikSsbdfihRrt6pqs+23hPz0V+6upUwHsWgbKnycFRMCUdO2DGBKQX9BqQU3CclI
DY2sTV16stiiYIVQlyibYWxq/6Voc85UXPiwZQomdNouPlaAAg5okRw/W62q+ONW
NXIfBg4O/99AlGrSUPmVVZgGC0ZhB7jdbRCZmWRx8drJy1YXWkLwUviJyw/5l7Ra
UH4Mto4KBke0BLWKHHEa
-----END CERTIFICATE-----
