Certificate:
    Data:
        Version: 3 (0x2)
        Serial Number: 1 (0x1)
        Signature Algorithm: sha1WithRSAEncryption
        Issuer: C=BA, ST=RS, L=Banja Luka, O=Elektrotehnicki fakultet, OU=CA_Dobrovoljski, CN=Tanja
        Validity
            Not Before: May 19 19:50:53 2020 GMT
            Not After : Oct  1 19:50:53 2021 GMT
        Subject: C=BA, ST=RS, O=Elektrotehnicki fakultet, OU=CA_Dobrovoljski, CN=korisnik1
        Subject Public Key Info:
            Public Key Algorithm: rsaEncryption
                RSA Public-Key: (2048 bit)
                Modulus:
                    00:c7:00:1f:26:bc:56:1f:d8:ef:2b:64:9a:c4:d1:
                    ff:82:38:dd:74:88:e7:a2:d1:be:c9:fc:4a:d4:1e:
                    b4:65:45:c6:32:45:6e:24:ab:4b:24:33:63:fa:be:
                    c8:d5:d4:bd:a8:32:b8:49:46:d9:b1:17:08:42:9b:
                    56:a0:2f:0f:cd:6c:95:d3:d1:60:15:e0:d8:17:ff:
                    d8:31:c4:cf:58:65:d7:1f:ca:9e:10:e4:af:32:72:
                    28:92:6a:f7:09:01:23:09:37:07:b1:28:77:57:33:
                    aa:13:08:94:5a:b1:ae:78:ca:28:2d:32:7e:67:f1:
                    ac:ca:6b:29:17:4b:bb:2e:18:55:1b:d9:64:03:b0:
                    48:90:88:aa:7d:11:3b:aa:93:10:00:84:d4:66:39:
                    bc:f2:32:d3:eb:59:8a:23:78:fd:d4:3f:16:19:a9:
                    b7:6b:5d:10:95:5b:be:86:c6:ac:2e:5a:d1:60:59:
                    8f:9e:6a:b8:71:b7:48:e8:21:62:28:bd:4c:27:c2:
                    9f:ca:35:b9:ac:55:56:4c:c5:5f:e8:14:93:8b:eb:
                    1d:2e:50:da:a1:dd:65:74:c2:2a:9b:4a:c9:6d:2b:
                    65:4d:be:15:ec:fe:7b:d4:a8:ad:29:f6:52:19:2a:
                    73:17:2a:7b:a0:01:2b:ef:6b:dc:0d:60:5d:a0:a7:
                    8d:d5
                Exponent: 65537 (0x10001)
        X509v3 extensions:
            X509v3 Basic Constraints: 
                CA:FALSE
            X509v3 Extended Key Usage: 
                TLS Web Client Authentication
            Netscape Comment: 
                OpenSSL Generated Certificate
            X509v3 Subject Key Identifier: 
                72:E8:C8:32:22:35:2E:8C:B2:16:CE:D8:60:EB:AB:67:13:AC:DF:0A
            X509v3 Authority Key Identifier: 
                keyid:A6:16:52:D5:FA:4F:0C:B6:05:42:0A:94:CF:18:D9:6E:89:59:54:38

            X509v3 CRL Distribution Points: 

                Full Name:
                  URI:http://192.168.21.89/rootcrl.pem

    Signature Algorithm: sha1WithRSAEncryption
         2d:52:1a:3f:a5:ff:e7:6c:3f:7f:fe:ce:b6:71:4a:34:b7:02:
         5b:1c:a5:00:5d:1d:41:db:d5:db:83:a8:35:de:8c:fe:1c:c0:
         4d:b0:89:77:74:47:f3:6d:fc:07:de:b5:a0:4b:a7:8a:2c:e7:
         6b:d7:ab:f3:87:84:4e:02:58:73:c3:30:c4:d2:35:90:ae:b2:
         30:5d:7a:30:a2:26:81:b3:91:ba:97:ac:b8:ab:10:81:48:9a:
         06:44:12:71:bf:3a:dd:f8:e8:59:9f:e6:df:47:85:a7:87:e0:
         e3:83:5b:6d:6a:b7:a9:21:4b:85:16:aa:0d:ec:85:0c:96:be:
         ee:b1:a1:79:cd:2d:1f:72:e4:c3:c1:19:d3:ad:2c:82:2a:ce:
         1e:32:c0:ce:7a:58:bf:66:79:01:f4:dd:20:9c:14:12:4d:63:
         ff:63:50:00:04:77:23:3e:da:20:ab:b1:f4:f7:c3:34:35:fb:
         f2:09:c4:f8:e7:9a:47:c1:ac:15:32:f7:07:b0:2f:b2:98:49:
         da:b8:20:d3:83:a2:ed:ad:59:45:f0:36:36:dd:df:ec:7e:83:
         55:1f:15:08:b0:10:d7:83:99:ed:98:68:03:d4:38:8d:ed:d4:
         f6:28:9a:a6:6f:fe:91:84:1c:b4:cc:26:79:95:ec:3e:13:f2:
         be:85:4e:39:5a:83:bb:eb:26:ae:c0:3f:03:3d:62:37:94:22:
         79:0c:74:20:c5:26:71:41:b4:c3:5b:40:3a:f7:06:7b:34:57:
         76:c5:21:2b:2e:6b:59:5a:23:38:60:46:e3:30:07:b7:27:4b:
         81:40:b2:4a:6d:ae:e7:f5:7c:48:38:3d:99:17:6e:51:53:03:
         9f:1c:37:c1:68:93:25:50:fe:ed:94:b9:7c:97:6a:3e:44:f3:
         18:fe:e1:68:14:54:01:bd:66:b8:a6:12:82:3f:2a:31:48:81:
         43:36:e7:4a:be:0f:a6:5a:b4:c6:26:f8:4c:42:b3:8e:20:1b:
         5b:b7:fe:60:c1:b1:20:06:22:ce:52:e8:dc:7b:d3:c5:68:2d:
         90:00:49:73:98:28:b9:85:1f:08:40:74:81:47:66:eb:26:10:
         61:73:59:15:a4:bb:b6:77:74:90:9e:ac:21:99:e0:fc:55:ac:
         f1:1d:16:ac:55:af:9f:40:38:2f:db:40:79:8f:dd:be:29:47:
         db:bd:f8:62:00:0a:d5:73:7f:7d:bf:9c:14:42:8f:78:44:44:
         3c:1a:29:e4:5e:5d:43:7d:88:56:d4:63:3d:cf:eb:4e:e7:10:
         66:25:a3:03:a2:d0:e9:d5:d2:42:44:75:39:30:ab:6c:d1:45:
         8f:b1:a9:60:ec:0f:b9:ea
-----BEGIN CERTIFICATE-----
MIIFJzCCAw+gAwIBAgIBATANBgkqhkiG9w0BAQUFADB8MQswCQYDVQQGEwJCQTEL
MAkGA1UECBMCUlMxEzARBgNVBAcTCkJhbmphIEx1a2ExITAfBgNVBAoTGEVsZWt0
cm90ZWhuaWNraSBmYWt1bHRldDEYMBYGA1UECxQPQ0FfRG9icm92b2xqc2tpMQ4w
DAYDVQQDEwVUYW5qYTAeFw0yMDA1MTkxOTUwNTNaFw0yMTEwMDExOTUwNTNaMGsx
CzAJBgNVBAYTAkJBMQswCQYDVQQIEwJSUzEhMB8GA1UEChMYRWxla3Ryb3RlaG5p
Y2tpIGZha3VsdGV0MRgwFgYDVQQLFA9DQV9Eb2Jyb3ZvbGpza2kxEjAQBgNVBAMT
CWtvcmlzbmlrMTCCASIwDQYJKoZIhvcNAQEBBQADggEPADCCAQoCggEBAMcAHya8
Vh/Y7ytkmsTR/4I43XSI56LRvsn8StQetGVFxjJFbiSrSyQzY/q+yNXUvagyuElG
2bEXCEKbVqAvD81sldPRYBXg2Bf/2DHEz1hl1x/KnhDkrzJyKJJq9wkBIwk3B7Eo
d1czqhMIlFqxrnjKKC0yfmfxrMprKRdLuy4YVRvZZAOwSJCIqn0RO6qTEACE1GY5
vPIy0+tZiiN4/dQ/Fhmpt2tdEJVbvobGrC5a0WBZj55quHG3SOghYii9TCfCn8o1
uaxVVkzFX+gUk4vrHS5Q2qHdZXTCKptKyW0rZU2+Fez+e9SorSn2Uhkqcxcqe6AB
K+9r3A1gXaCnjdUCAwEAAaOBxDCBwTAJBgNVHRMEAjAAMBMGA1UdJQQMMAoGCCsG
AQUFBwMCMCwGCWCGSAGG+EIBDQQfFh1PcGVuU1NMIEdlbmVyYXRlZCBDZXJ0aWZp
Y2F0ZTAdBgNVHQ4EFgQUcujIMiI1LoyyFs7YYOurZxOs3wowHwYDVR0jBBgwFoAU
phZS1fpPDLYFQgqUzxjZbolZVDgwMQYDVR0fBCowKDAmoCSgIoYgaHR0cDovLzE5
Mi4xNjguMjEuODkvcm9vdGNybC5wZW0wDQYJKoZIhvcNAQEFBQADggIBAC1SGj+l
/+dsP3/+zrZxSjS3AlscpQBdHUHb1duDqDXejP4cwE2wiXd0R/Nt/AfetaBLp4os
52vXq/OHhE4CWHPDMMTSNZCusjBdejCiJoGzkbqXrLirEIFImgZEEnG/Ot346Fmf
5t9HhaeH4OODW21qt6khS4UWqg3shQyWvu6xoXnNLR9y5MPBGdOtLIIqzh4ywM56
WL9meQH03SCcFBJNY/9jUAAEdyM+2iCrsfT3wzQ1+/IJxPjnmkfBrBUy9wewL7KY
Sdq4INODou2tWUXwNjbd3+x+g1UfFQiwENeDme2YaAPUOI3t1PYomqZv/pGEHLTM
JnmV7D4T8r6FTjlag7vrJq7APwM9YjeUInkMdCDFJnFBtMNbQDr3Bns0V3bFISsu
a1laIzhgRuMwB7cnS4FAskptruf1fEg4PZkXblFTA58cN8FokyVQ/u2UuXyXaj5E
8xj+4WgUVAG9ZrimEoI/KjFIgUM250q+D6ZatMYm+ExCs44gG1u3/mDBsSAGIs5S
6Nx708VoLZAASXOYKLmFHwhAdIFHZusmEGFzWRWku7Z3dJCerCGZ4PxVrPEdFqxV
r59AOC/bQHmP3b4pR9u9+GIACtVzf32/nBRCj3hERDwaKeReXUN9iFbUYz3P607n
EGYlowOi0OnV0kJEdTkwq2zRRY+xqWDsD7nq
-----END CERTIFICATE-----
